target datalayout = "e-m:e-p270:32:32-p271:32:32-p272:64:64-i64:64-i128:128-f80:128-n8:16:32:64-S128"
target triple = "x86_64-pc-linux-gnu"

%struct.SDL_GPUDevice = type { ptr, ptr, ptr, ptr, ptr, ptr, ptr, ptr, ptr, ptr, ptr, ptr, ptr, ptr, ptr, ptr, ptr, ptr, ptr, ptr, ptr, ptr, ptr, ptr, ptr, ptr, ptr, ptr, ptr, ptr, ptr, ptr, ptr, ptr, ptr, ptr, ptr, ptr, ptr, ptr, ptr, ptr, ptr, ptr, ptr, ptr, ptr, ptr, ptr, ptr, ptr, ptr, ptr, ptr, ptr, ptr, ptr, ptr, ptr, ptr, ptr, ptr, ptr, ptr, ptr, ptr, ptr, ptr, ptr, ptr, ptr, ptr, ptr, ptr, ptr, ptr, ptr, ptr, ptr, ptr, ptr, ptr, ptr, ptr, ptr, i32, i8 }
%struct.CommandBufferCommonHeader = type { ptr, %struct.RenderPass, i8, %struct.Pass, i8, %struct.Pass, i8, i8, i8 }
%struct.RenderPass = type { ptr, i8, [4 x ptr], i32, ptr }
%struct.Pass = type { ptr, i8 }

@.str.4 = private unnamed_addr constant [26 x i8] c"Parameter '%s' is invalid\00", align 1
@.str.8 = private unnamed_addr constant [103 x i8] c"generated/home/dtcxzyw/WorkSpace/Projects/compilers/llvm-opt-benchmark/bench/sdl/SDL/src/gpu/SDL_gpu.c\00", align 1
@.str.179 = private unnamed_addr constant [15 x i8] c"command_buffer\00", align 1
@SDL_PopGPUDebugGroup_REAL.sdl_assert_data = internal global { i8, [3 x i8], i32, ptr, ptr, i32, [4 x i8], ptr, ptr } { i8 0, [3 x i8] zeroinitializer, i32 0, ptr @.str.181, ptr null, i32 0, [4 x i8] zeroinitializer, ptr null, ptr null }, align 8
@__func__.SDL_PopGPUDebugGroup_REAL = private unnamed_addr constant [26 x i8] c"SDL_PopGPUDebugGroup_REAL\00", align 1

; Function Attrs: nounwind uwtable
define hidden void @SDL_PopGPUDebugGroup_REAL(ptr noundef %0) #0 {
  %2 = alloca ptr, align 8
  %3 = alloca i32, align 4
  %4 = alloca i32, align 4
  store ptr %0, ptr %2, align 8
  %5 = load ptr, ptr %2, align 8
  %6 = icmp eq ptr %5, null
  br i1 %6, label %7, label %9

7:                                                ; preds = %1
  %8 = call zeroext i1 (ptr, ...) @SDL_SetError_REAL(ptr noundef @.str.4, ptr noundef @.str.179)
  br label %46

9:                                                ; preds = %1
  %10 = load ptr, ptr %2, align 8
  %11 = getelementptr inbounds nuw %struct.CommandBufferCommonHeader, ptr %10, i32 0, i32 0
  %12 = load ptr, ptr %11, align 8
  %13 = getelementptr inbounds nuw %struct.SDL_GPUDevice, ptr %12, i32 0, i32 86
  %14 = load i8, ptr %13, align 4, !range !5, !noundef !6
  %15 = trunc i8 %14 to i1
  br i1 %15, label %16, label %39

16:                                               ; preds = %9
  %17 = load ptr, ptr %2, align 8
  %18 = getelementptr inbounds nuw %struct.CommandBufferCommonHeader, ptr %17, i32 0, i32 7
  %19 = load i8, ptr %18, align 1, !range !5, !noundef !6
  %20 = trunc i8 %19 to i1
  br i1 %20, label %21, label %38

21:                                               ; preds = %16
  br label %22

22:                                               ; preds = %21
  br label %23

23:                                               ; preds = %22, %34
  call void @llvm.lifetime.start.p0(i64 4, ptr %3) #6
  %24 = call i32 @SDL_ReportAssertion_REAL(ptr noundef @SDL_PopGPUDebugGroup_REAL.sdl_assert_data, ptr noundef @__func__.SDL_PopGPUDebugGroup_REAL, ptr noundef @.str.8, i32 noundef 1358)
  store i32 %24, ptr %3, align 4
  %25 = load i32, ptr %3, align 4
  %26 = icmp eq i32 %25, 0
  br i1 %26, label %27, label %28

27:                                               ; preds = %23
  store i32 4, ptr %4, align 4
  br label %34

28:                                               ; preds = %23
  %29 = load i32, ptr %3, align 4
  %30 = icmp eq i32 %29, 1
  br i1 %30, label %31, label %32

31:                                               ; preds = %28
  call void @llvm.debugtrap()
  br label %32

32:                                               ; preds = %31, %28
  br label %33

33:                                               ; preds = %32
  store i32 5, ptr %4, align 4
  br label %34

34:                                               ; preds = %33, %27
  call void @llvm.lifetime.end.p0(i64 4, ptr %3) #6
  %35 = load i32, ptr %4, align 4
  switch i32 %35, label %47 [
    i32 4, label %23
    i32 5, label %36
  ]

36:                                               ; preds = %34
  br label %37

37:                                               ; preds = %36
  br label %46

38:                                               ; preds = %16
  br label %39

39:                                               ; preds = %38, %9
  %40 = load ptr, ptr %2, align 8
  %41 = getelementptr inbounds nuw %struct.CommandBufferCommonHeader, ptr %40, i32 0, i32 0
  %42 = load ptr, ptr %41, align 8
  %43 = getelementptr inbounds nuw %struct.SDL_GPUDevice, ptr %42, i32 0, i32 13
  %44 = load ptr, ptr %43, align 8
  %45 = load ptr, ptr %2, align 8
  call void %44(ptr noundef %45)
  br label %46

46:                                               ; preds = %39, %37, %7
  ret void

47:                                               ; preds = %34
  unreachable
}